#include <math.h>
#include <stdio.h>
#include <stdlib.h>
#include <string.h>

int main()
{
int n,k,i,j;
scanf("%d%d",&n,&k);
int a[n];
char p;
for(i=0;i<n;i++)
{
    scanf("%d",&a[i]);
}
for(i=0;i<n;i++)
{
    for(j=1;j<n;j++)
    {
        if(a[i]+a[j]==k)
        {
            p='y';
            printf("yes");
            break;
        }
        else
        continue;
        }
    if(p=='y')
    break;
    else
    continue;
}
if(p=='y')
return 0;
else
printf("no");
return 0;
}
